(dp0
S'engine'
p1
S'internal'
p2
sS'params1'
p3
S''
p4
sS'run'
p5
I00
sS'method1'
p6
S'pseudo-log-likelihood'
p7
sS'geometry'
p8
V779x903+47+69
p9
sS'mln'
p10
S'1005.mln'
p11
sS'priorStdDev'
p12
S'100'
p13
sS'db'
p14
S'train.db'
p15
sS'output_filename'
p16
S'wts.pypll.train-1005.mln'
p17
sS'pattern'
p18
g4
sS'addUnitClauses'
p19
I0
sS'nePreds'
p20
g4
sS'usePrior'
p21
I0
s.